target datalayout = "e-m:e-p270:32:32-p271:32:32-p272:64:64-i64:64-i128:128-f80:128-n8:16:32:64-S128"
target triple = "x86_64-pc-linux-gnu"

%struct.Vec_Int_t_ = type { i32, i32, ptr }
%struct.Gia_Man_t_ = type { ptr, ptr, i32, i32, i32, i32, ptr, ptr, i32, i32, i32, ptr, ptr, %struct.Vec_Int_t_, %struct.Vec_Int_t_, i32, i32, i32, %struct.Vec_Int_t_, ptr, ptr, ptr, i32, i32, i32, i32, ptr, ptr, ptr, ptr, ptr, i32, i32, ptr, i32, ptr, ptr, ptr, ptr, ptr, ptr, ptr, ptr, ptr, ptr, ptr, ptr, ptr, ptr, ptr, ptr, ptr, ptr, %struct.Vec_Int_t_, %struct.Vec_Int_t_, ptr, ptr, ptr, ptr, ptr, ptr, ptr, ptr, ptr, ptr, ptr, ptr, ptr, ptr, ptr, ptr, ptr, ptr, ptr, ptr, ptr, i32, float, float, ptr, ptr, i32, ptr, ptr, ptr, ptr, ptr, ptr, ptr, ptr, ptr, ptr, ptr, ptr, ptr, ptr, ptr, i64, i64, ptr, ptr, i32, i32, i32, i32, i32, i32, i32, i32, i32, i32, i32, i32, ptr, ptr, ptr, ptr, ptr, ptr, ptr, ptr, i32, i32, i32, ptr, i32, i32, ptr, ptr, ptr, ptr, ptr, ptr, i32, i32, ptr, %struct.Vec_Int_t_, %struct.Vec_Int_t_, %struct.Vec_Int_t_, ptr, ptr, ptr, i32, i32, i32, i32, ptr, ptr, ptr, ptr, ptr }
%struct.Gia_Rpr_t_ = type { i32 }

@.str = private unnamed_addr constant [37 x i8] c"Pair (%d, %d) are still equivalent.\0A\00", align 1

; Function Attrs: inlinehint nounwind uwtable
define internal i32 @Gia_ObjRepr(ptr noundef %0, i32 noundef %1) #2 {
  %3 = alloca ptr, align 8
  %4 = alloca i32, align 4
  store ptr %0, ptr %3, align 8, !tbaa !3
  store i32 %1, ptr %4, align 4, !tbaa !10
  %5 = load ptr, ptr %3, align 8, !tbaa !3
  %6 = getelementptr inbounds nuw %struct.Gia_Man_t_, ptr %5, i32 0, i32 27
  %7 = load ptr, ptr %6, align 8, !tbaa !18
  %8 = load i32, ptr %4, align 4, !tbaa !10
  %9 = sext i32 %8 to i64
  %10 = getelementptr inbounds %struct.Gia_Rpr_t_, ptr %7, i64 %9
  %11 = load i32, ptr %10, align 4
  %12 = and i32 %11, 268435455
  ret i32 %12
}

; Function Attrs: inlinehint nounwind uwtable
define internal i32 @Vec_IntEntry(ptr noundef %0, i32 noundef %1) #2 {
  %3 = alloca ptr, align 8
  %4 = alloca i32, align 4
  store ptr %0, ptr %3, align 8, !tbaa !8
  store i32 %1, ptr %4, align 4, !tbaa !10
  %5 = load ptr, ptr %3, align 8, !tbaa !8
  %6 = getelementptr inbounds nuw %struct.Vec_Int_t_, ptr %5, i32 0, i32 2
  %7 = load ptr, ptr %6, align 8, !tbaa !17
  %8 = load i32, ptr %4, align 4, !tbaa !10
  %9 = sext i32 %8 to i64
  %10 = getelementptr inbounds i32, ptr %7, i64 %9
  %11 = load i32, ptr %10, align 4, !tbaa !10
  ret i32 %11
}

; Function Attrs: inlinehint nounwind uwtable
define internal i32 @Vec_IntSize(ptr noundef %0) #2 {
  %2 = alloca ptr, align 8
  store ptr %0, ptr %2, align 8, !tbaa !8
  %3 = load ptr, ptr %2, align 8, !tbaa !8
  %4 = getelementptr inbounds nuw %struct.Vec_Int_t_, ptr %3, i32 0, i32 1
  %5 = load i32, ptr %4, align 4, !tbaa !14
  ret i32 %5
}

; Function Attrs: nounwind uwtable
define void @Ssc_GiaClassesCheckPairs(ptr noundef %0, ptr noundef %1) #0 {
  %3 = alloca ptr, align 8
  %4 = alloca ptr, align 8
  %5 = alloca i32, align 4
  %6 = alloca i32, align 4
  %7 = alloca i32, align 4
  %8 = alloca i32, align 4
  store ptr %0, ptr %3, align 8, !tbaa !3
  store ptr %1, ptr %4, align 8, !tbaa !8
  call void @llvm.lifetime.start.p0(i64 4, ptr %5) #8
  call void @llvm.lifetime.start.p0(i64 4, ptr %6) #8
  call void @llvm.lifetime.start.p0(i64 4, ptr %7) #8
  call void @llvm.lifetime.start.p0(i64 4, ptr %8) #8
  store i32 1, ptr %8, align 4, !tbaa !10
  store i32 0, ptr %5, align 4, !tbaa !10
  br label %9

9:                                                ; preds = %37, %2
  %10 = load i32, ptr %5, align 4, !tbaa !10
  %11 = add nsw i32 %10, 1
  %12 = load ptr, ptr %4, align 8, !tbaa !8
  %13 = call i32 @Vec_IntSize(ptr noundef %12)
  %14 = icmp slt i32 %11, %13
  br i1 %14, label %15, label %24

15:                                               ; preds = %9
  %16 = load ptr, ptr %4, align 8, !tbaa !8
  %17 = load i32, ptr %5, align 4, !tbaa !10
  %18 = call i32 @Vec_IntEntry(ptr noundef %16, i32 noundef %17)
  store i32 %18, ptr %6, align 4, !tbaa !10
  br i1 true, label %19, label %24

19:                                               ; preds = %15
  %20 = load ptr, ptr %4, align 8, !tbaa !8
  %21 = load i32, ptr %5, align 4, !tbaa !10
  %22 = add nsw i32 %21, 1
  %23 = call i32 @Vec_IntEntry(ptr noundef %20, i32 noundef %22)
  store i32 %23, ptr %7, align 4, !tbaa !10
  br label %24

24:                                               ; preds = %19, %15, %9
  %25 = phi i1 [ false, %15 ], [ false, %9 ], [ true, %19 ]
  br i1 %25, label %26, label %40

26:                                               ; preds = %24
  %27 = load i32, ptr %6, align 4, !tbaa !10
  %28 = load ptr, ptr %3, align 8, !tbaa !3
  %29 = load i32, ptr %7, align 4, !tbaa !10
  %30 = call i32 @Gia_ObjRepr(ptr noundef %28, i32 noundef %29)
  %31 = icmp eq i32 %27, %30
  br i1 %31, label %32, label %36

32:                                               ; preds = %26
  %33 = load i32, ptr %6, align 4, !tbaa !10
  %34 = load i32, ptr %7, align 4, !tbaa !10
  %35 = call i32 (ptr, ...) @printf(ptr noundef @.str, i32 noundef %33, i32 noundef %34)
  store i32 0, ptr %8, align 4, !tbaa !10
  br label %36

36:                                               ; preds = %32, %26
  br label %37

37:                                               ; preds = %36
  %38 = load i32, ptr %5, align 4, !tbaa !10
  %39 = add nsw i32 %38, 2
  store i32 %39, ptr %5, align 4, !tbaa !10
  br label %9, !llvm.loop !60

40:                                               ; preds = %24
  call void @llvm.lifetime.end.p0(i64 4, ptr %8) #8
  call void @llvm.lifetime.end.p0(i64 4, ptr %7) #8
  call void @llvm.lifetime.end.p0(i64 4, ptr %6) #8
  call void @llvm.lifetime.end.p0(i64 4, ptr %5) #8
  ret void
}