; Function Attrs: nofree nounwind uwtable
define void @Ssc_GiaClassesCheckPairs(ptr noundef readonly captures(none) %0, ptr noundef readonly captures(none) %1) local_unnamed_addr #4 {
  %3 = getelementptr i8, ptr %1, i64 4
  %.val16 = load i32, ptr %3, align 4, !tbaa !3
  %4 = icmp sgt i32 %.val16, 1
  br i1 %4, label %.lr.ph, label %.critedge

.lr.ph:                                           ; preds = %2
  %5 = getelementptr i8, ptr %1, i64 8
  %6 = getelementptr i8, ptr %0, i64 192
  br label %7

7:                                                ; preds = %.lr.ph, %20
  %.val19 = phi i32 [ %.val16, %.lr.ph ], [ %.val, %20 ]
  %indvars.iv = phi i64 [ 0, %.lr.ph ], [ %indvars.iv.next, %20 ]
  %8 = or disjoint i64 %indvars.iv, 1
  %.val14 = load ptr, ptr %5, align 8, !tbaa !10
  %9 = getelementptr inbounds nuw i32, ptr %.val14, i64 %indvars.iv
  %10 = load i32, ptr %9, align 4, !tbaa !11
  %11 = getelementptr inbounds nuw i32, ptr %.val14, i64 %8
  %12 = load i32, ptr %11, align 4, !tbaa !11
  %.val15 = load ptr, ptr %6, align 8, !tbaa !12
  %13 = sext i32 %12 to i64
  %14 = getelementptr inbounds %struct.Gia_Rpr_t_, ptr %.val15, i64 %13
  %15 = load i32, ptr %14, align 4
  %16 = and i32 %15, 268435455
  %17 = icmp eq i32 %10, %16
  br i1 %17, label %18, label %20

18:                                               ; preds = %7
  %19 = tail call i32 (ptr, ...) @printf(ptr noundef nonnull dereferenceable(1) @.str, i32 noundef %10, i32 noundef %12)
  %.val.pre = load i32, ptr %3, align 4, !tbaa !3
  br label %20

20:                                               ; preds = %7, %18
  %.val = phi i32 [ %.val19, %7 ], [ %.val.pre, %18 ]
  %indvars.iv.next = add nuw nsw i64 %indvars.iv, 2
  %21 = trunc i64 %indvars.iv.next to i32
  %22 = or disjoint i32 %21, 1
  %23 = icmp slt i32 %22, %.val
  br i1 %23, label %7, label %.critedge, !llvm.loop !62

.critedge:                                        ; preds = %20, %2
  ret void
}